; Function Attrs: nounwind uwtable
define range(i32 -1, 1) i32 @evbuffer_add_file(ptr noundef %0, i32 noundef %1, i64 noundef %2, i64 noundef %3) local_unnamed_addr #1 {
  %5 = tail call ptr @event_mm_calloc_(i64 noundef 1, i64 noundef 80) #16
  %.not.i = icmp eq ptr %5, null
  br i1 %.not.i, label %evbuffer_file_segment_new.exit.thread, label %6

6:                                                ; preds = %4
  %7 = getelementptr inbounds nuw i8, ptr %5, i64 8
  store i32 1, ptr %7, align 8
  %8 = getelementptr inbounds nuw i8, ptr %5, i64 20
  store i32 %1, ptr %8, align 4
  %9 = getelementptr inbounds nuw i8, ptr %5, i64 12
  store i32 1, ptr %9, align 4
  %10 = getelementptr inbounds nuw i8, ptr %5, i64 40
  store i64 %2, ptr %10, align 8
  %11 = getelementptr inbounds nuw i8, ptr %5, i64 64
  %12 = icmp eq i64 %3, -1
  tail call void @llvm.memset.p0.i64(ptr noundef nonnull align 8 dereferenceable(16) %11, i8 0, i64 16, i1 false)
  br i1 %12, label %13, label %16

13:                                               ; preds = %6
  %14 = tail call i64 @evutil_fd_filesize(i32 noundef %1) #16
  %15 = icmp eq i64 %14, -1
  br i1 %15, label %28, label %16

16:                                               ; preds = %13, %6
  %.030.i = phi i64 [ %14, %13 ], [ %3, %6 ]
  %17 = getelementptr inbounds nuw i8, ptr %5, i64 56
  store i64 %.030.i, ptr %17, align 8
  %18 = or i64 %.030.i, %2
  %or.cond3.not.i = icmp slt i64 %18, 0
  %19 = sub nuw nsw i64 9223372036854775807, %.030.i
  %20 = icmp ugt i64 %2, %19
  %or.cond.i = select i1 %or.cond3.not.i, i1 true, i1 %20
  br i1 %or.cond.i, label %28, label %21

21:                                               ; preds = %16
  %22 = getelementptr inbounds nuw i8, ptr %5, i64 16
  %23 = load i8, ptr %22, align 8
  %24 = or i8 %23, 1
  store i8 %24, ptr %22, align 8
  %25 = load ptr, ptr getelementptr inbounds nuw (i8, ptr @evthread_lock_fns_, i64 8), align 8
  %.not38.i = icmp eq ptr %25, null
  br i1 %.not38.i, label %29, label %26

26:                                               ; preds = %21
  %27 = tail call ptr %25(i32 noundef 0) #16
  br label %29

28:                                               ; preds = %16, %13
  tail call void @event_mm_free_(ptr noundef nonnull %5) #16
  br label %evbuffer_file_segment_new.exit.thread

29:                                               ; preds = %26, %21
  %30 = phi ptr [ %27, %26 ], [ null, %21 ]
  store ptr %30, ptr %5, align 8
  %31 = tail call i32 @evbuffer_add_file_segment(ptr noundef %0, ptr noundef nonnull %5, i64 noundef 0, i64 noundef %3)
  %32 = icmp eq i32 %31, 0
  br i1 %32, label %33, label %evbuffer_file_segment_new.exit.thread

33:                                               ; preds = %29
  tail call void @evbuffer_file_segment_free(ptr noundef nonnull %5)
  br label %evbuffer_file_segment_new.exit.thread

evbuffer_file_segment_new.exit.thread:            ; preds = %4, %28, %29, %33
  %.0 = phi i32 [ 0, %33 ], [ -1, %29 ], [ -1, %28 ], [ -1, %4 ]
  ret i32 %.0
}